; Function Attrs: nounwind uwtable
define ptr @l_List_forIn_x27_loop___at_Lean_KVMap_mergeBy___spec__1(ptr noundef %0, ptr readnone captures(none) %1, ptr readnone captures(none) %2, ptr readnone captures(none) %3, ptr noundef %4, ptr noundef %5, ptr readnone captures(none) %6) local_unnamed_addr #0 {
  %8 = ptrtoint ptr %0 to i64
  %9 = and i64 %8, 1
  %.not83 = icmp eq i64 %9, 0
  br label %10

10:                                               ; preds = %124, %7
  %.035 = phi ptr [ %5, %7 ], [ %125, %124 ]
  %.0 = phi ptr [ %4, %7 ], [ %40, %124 ]
  %11 = ptrtoint ptr %.0 to i64
  %12 = and i64 %11, 1
  %.not.i52 = icmp eq i64 %12, 0
  br i1 %.not.i52, label %16, label %13

13:                                               ; preds = %10
  %14 = lshr i64 %11, 1
  %15 = trunc i64 %14 to i32
  br label %lean_obj_tag.exit

16:                                               ; preds = %10
  %17 = getelementptr i8, ptr %.0, i64 4
  %.val.i = load i32, ptr %17, align 4
  %18 = lshr i32 %.val.i, 24
  br label %lean_obj_tag.exit

lean_obj_tag.exit:                                ; preds = %13, %16
  %.0.i = phi i32 [ %15, %13 ], [ %18, %16 ]
  %19 = icmp eq i32 %.0.i, 0
  br i1 %19, label %20, label %28

20:                                               ; preds = %lean_obj_tag.exit
  br i1 %.not83, label %21, label %lean_dec.exit45

21:                                               ; preds = %20
  %22 = load i32, ptr %0, align 4, !tbaa !8
  %23 = icmp sgt i32 %22, 1
  br i1 %23, label %24, label %26, !prof !11

24:                                               ; preds = %21
  %25 = add nsw i32 %22, -1
  store i32 %25, ptr %0, align 4, !tbaa !8
  br label %lean_dec.exit45

26:                                               ; preds = %21
  %.not.i = icmp eq i32 %22, 0
  br i1 %.not.i, label %lean_dec.exit45, label %27

27:                                               ; preds = %26
  tail call void @lean_dec_ref_cold(ptr noundef nonnull %0) #6
  br label %lean_dec.exit45

lean_dec.exit45:                                  ; preds = %27, %26, %24, %20
  ret ptr %.035

28:                                               ; preds = %lean_obj_tag.exit
  %29 = getelementptr inbounds nuw i8, ptr %.0, i64 8
  %30 = load ptr, ptr %29, align 8, !tbaa !4
  %31 = ptrtoint ptr %30 to i64
  %32 = and i64 %31, 1
  %.not = icmp eq i64 %32, 0
  br i1 %.not, label %33, label %lean_inc.exit42

33:                                               ; preds = %28
  %.val.i53 = load i32, ptr %30, align 4, !tbaa !8
  %34 = icmp sgt i32 %.val.i53, 0
  br i1 %34, label %35, label %37, !prof !11

35:                                               ; preds = %33
  %36 = add nuw i32 %.val.i53, 1
  store i32 %36, ptr %30, align 4, !tbaa !8
  br label %lean_inc.exit42

37:                                               ; preds = %33
  %.not.i54 = icmp eq i32 %.val.i53, 0
  br i1 %.not.i54, label %lean_inc.exit42, label %38

38:                                               ; preds = %37
  tail call void @lean_inc_ref_cold(ptr noundef nonnull %30) #6
  br label %lean_inc.exit42

lean_inc.exit42:                                  ; preds = %38, %37, %35, %28
  %39 = getelementptr inbounds nuw i8, ptr %.0, i64 16
  %40 = load ptr, ptr %39, align 8, !tbaa !4
  %41 = ptrtoint ptr %40 to i64
  %42 = and i64 %41, 1
  %.not77 = icmp eq i64 %42, 0
  br i1 %.not77, label %43, label %lean_inc.exit41

43:                                               ; preds = %lean_inc.exit42
  %.val.i55 = load i32, ptr %40, align 4, !tbaa !8
  %44 = icmp sgt i32 %.val.i55, 0
  br i1 %44, label %45, label %47, !prof !11

45:                                               ; preds = %43
  %46 = add nuw i32 %.val.i55, 1
  store i32 %46, ptr %40, align 4, !tbaa !8
  br label %lean_inc.exit41

47:                                               ; preds = %43
  %.not.i56 = icmp eq i32 %.val.i55, 0
  br i1 %.not.i56, label %lean_inc.exit41, label %48

48:                                               ; preds = %47
  tail call void @lean_inc_ref_cold(ptr noundef nonnull %40) #6
  br label %lean_inc.exit41

lean_inc.exit41:                                  ; preds = %48, %47, %45, %lean_inc.exit42
  br i1 %.not.i52, label %49, label %lean_dec.exit44

49:                                               ; preds = %lean_inc.exit41
  %50 = load i32, ptr %.0, align 4, !tbaa !8
  %51 = icmp sgt i32 %50, 1
  br i1 %51, label %52, label %54, !prof !11

52:                                               ; preds = %49
  %53 = add nsw i32 %50, -1
  store i32 %53, ptr %.0, align 4, !tbaa !8
  br label %lean_dec.exit44

54:                                               ; preds = %49
  %.not.i46 = icmp eq i32 %50, 0
  br i1 %.not.i46, label %lean_dec.exit44, label %55

55:                                               ; preds = %54
  tail call void @lean_dec_ref_cold(ptr noundef nonnull %.0) #6
  br label %lean_dec.exit44

lean_dec.exit44:                                  ; preds = %55, %54, %52, %lean_inc.exit41
  %56 = getelementptr inbounds nuw i8, ptr %30, i64 8
  %57 = load ptr, ptr %56, align 8, !tbaa !4
  %58 = ptrtoint ptr %57 to i64
  %59 = and i64 %58, 1
  %.not79 = icmp eq i64 %59, 0
  br i1 %.not79, label %60, label %lean_inc.exit40

60:                                               ; preds = %lean_dec.exit44
  %.val.i58 = load i32, ptr %57, align 4, !tbaa !8
  %61 = icmp sgt i32 %.val.i58, 0
  br i1 %61, label %62, label %64, !prof !11

62:                                               ; preds = %60
  %63 = add nuw i32 %.val.i58, 1
  store i32 %63, ptr %57, align 4, !tbaa !8
  br label %lean_inc.exit40

64:                                               ; preds = %60
  %.not.i59 = icmp eq i32 %.val.i58, 0
  br i1 %.not.i59, label %lean_inc.exit40, label %65

65:                                               ; preds = %64
  tail call void @lean_inc_ref_cold(ptr noundef nonnull %57) #6
  br label %lean_inc.exit40

lean_inc.exit40:                                  ; preds = %65, %64, %62, %lean_dec.exit44
  %66 = getelementptr inbounds nuw i8, ptr %30, i64 16
  %67 = load ptr, ptr %66, align 8, !tbaa !4
  %68 = ptrtoint ptr %67 to i64
  %69 = and i64 %68, 1
  %.not80 = icmp eq i64 %69, 0
  br i1 %.not80, label %70, label %lean_inc.exit39

70:                                               ; preds = %lean_inc.exit40
  %.val.i61 = load i32, ptr %67, align 4, !tbaa !8
  %71 = icmp sgt i32 %.val.i61, 0
  br i1 %71, label %72, label %74, !prof !11

72:                                               ; preds = %70
  %73 = add nuw i32 %.val.i61, 1
  store i32 %73, ptr %67, align 4, !tbaa !8
  br label %lean_inc.exit39

74:                                               ; preds = %70
  %.not.i62 = icmp eq i32 %.val.i61, 0
  br i1 %.not.i62, label %lean_inc.exit39, label %75

75:                                               ; preds = %74
  tail call void @lean_inc_ref_cold(ptr noundef nonnull %67) #6
  br label %lean_inc.exit39

lean_inc.exit39:                                  ; preds = %75, %74, %72, %lean_inc.exit40
  br i1 %.not, label %76, label %lean_dec.exit43

76:                                               ; preds = %lean_inc.exit39
  %77 = load i32, ptr %30, align 4, !tbaa !8
  %78 = icmp sgt i32 %77, 1
  br i1 %78, label %79, label %81, !prof !11

79:                                               ; preds = %76
  %80 = add nsw i32 %77, -1
  store i32 %80, ptr %30, align 4, !tbaa !8
  br label %lean_dec.exit43

81:                                               ; preds = %76
  %.not.i48 = icmp eq i32 %77, 0
  br i1 %.not.i48, label %lean_dec.exit43, label %82

82:                                               ; preds = %81
  tail call void @lean_dec_ref_cold(ptr noundef nonnull %30) #6
  br label %lean_dec.exit43

lean_dec.exit43:                                  ; preds = %82, %81, %79, %lean_inc.exit39
  %83 = tail call ptr @l_Lean_KVMap_findCore(ptr noundef %.035, ptr noundef %57)
  %84 = ptrtoint ptr %83 to i64
  %85 = and i64 %84, 1
  %.not.i64 = icmp eq i64 %85, 0
  br i1 %.not.i64, label %89, label %86

86:                                               ; preds = %lean_dec.exit43
  %87 = lshr i64 %84, 1
  %88 = trunc i64 %87 to i32
  br label %lean_obj_tag.exit67

89:                                               ; preds = %lean_dec.exit43
  %90 = getelementptr i8, ptr %83, i64 4
  %.val.i66 = load i32, ptr %90, align 4
  %91 = lshr i32 %.val.i66, 24
  br label %lean_obj_tag.exit67

lean_obj_tag.exit67:                              ; preds = %86, %89
  %.0.i65 = phi i32 [ %88, %86 ], [ %91, %89 ]
  %92 = icmp eq i32 %.0.i65, 0
  br i1 %92, label %124, label %93

93:                                               ; preds = %lean_obj_tag.exit67
  %94 = getelementptr inbounds nuw i8, ptr %83, i64 8
  %95 = load ptr, ptr %94, align 8, !tbaa !4
  %96 = ptrtoint ptr %95 to i64
  %97 = and i64 %96, 1
  %.not81 = icmp eq i64 %97, 0
  br i1 %.not81, label %98, label %lean_inc.exit38

98:                                               ; preds = %93
  %.val.i68 = load i32, ptr %95, align 4, !tbaa !8
  %99 = icmp sgt i32 %.val.i68, 0
  br i1 %99, label %100, label %102, !prof !11

100:                                              ; preds = %98
  %101 = add nuw i32 %.val.i68, 1
  store i32 %101, ptr %95, align 4, !tbaa !8
  br label %lean_inc.exit38

102:                                              ; preds = %98
  %.not.i69 = icmp eq i32 %.val.i68, 0
  br i1 %.not.i69, label %lean_inc.exit38, label %103

103:                                              ; preds = %102
  tail call void @lean_inc_ref_cold(ptr noundef nonnull %95) #6
  br label %lean_inc.exit38

lean_inc.exit38:                                  ; preds = %103, %102, %100, %93
  br i1 %.not.i64, label %104, label %lean_dec.exit

104:                                              ; preds = %lean_inc.exit38
  %105 = load i32, ptr %83, align 4, !tbaa !8
  %106 = icmp sgt i32 %105, 1
  br i1 %106, label %107, label %109, !prof !11

107:                                              ; preds = %104
  %108 = add nsw i32 %105, -1
  store i32 %108, ptr %83, align 4, !tbaa !8
  br label %lean_dec.exit

109:                                              ; preds = %104
  %.not.i50 = icmp eq i32 %105, 0
  br i1 %.not.i50, label %lean_dec.exit, label %110

110:                                              ; preds = %109
  tail call void @lean_dec_ref_cold(ptr noundef nonnull %83) #6
  br label %lean_dec.exit

lean_dec.exit:                                    ; preds = %110, %109, %107, %lean_inc.exit38
  br i1 %.not83, label %111, label %lean_inc.exit37

111:                                              ; preds = %lean_dec.exit
  %.val.i71 = load i32, ptr %0, align 4, !tbaa !8
  %112 = icmp sgt i32 %.val.i71, 0
  br i1 %112, label %113, label %115, !prof !11

113:                                              ; preds = %111
  %114 = add nuw i32 %.val.i71, 1
  store i32 %114, ptr %0, align 4, !tbaa !8
  br label %lean_inc.exit37

115:                                              ; preds = %111
  %.not.i72 = icmp eq i32 %.val.i71, 0
  br i1 %.not.i72, label %lean_inc.exit37, label %116

116:                                              ; preds = %115
  tail call void @lean_inc_ref_cold(ptr noundef nonnull %0) #6
  br label %lean_inc.exit37

lean_inc.exit37:                                  ; preds = %116, %115, %113, %lean_dec.exit
  br i1 %.not79, label %117, label %lean_inc.exit

117:                                              ; preds = %lean_inc.exit37
  %.val.i74 = load i32, ptr %57, align 4, !tbaa !8
  %118 = icmp sgt i32 %.val.i74, 0
  br i1 %118, label %119, label %121, !prof !11

119:                                              ; preds = %117
  %120 = add nuw i32 %.val.i74, 1
  store i32 %120, ptr %57, align 4, !tbaa !8
  br label %lean_inc.exit

121:                                              ; preds = %117
  %.not.i75 = icmp eq i32 %.val.i74, 0
  br i1 %.not.i75, label %lean_inc.exit, label %122

122:                                              ; preds = %121
  tail call void @lean_inc_ref_cold(ptr noundef nonnull %57) #6
  br label %lean_inc.exit

lean_inc.exit:                                    ; preds = %122, %121, %119, %lean_inc.exit37
  %123 = tail call ptr @lean_apply_3(ptr noundef %0, ptr noundef %57, ptr noundef %95, ptr noundef %67) #6
  br label %124

124:                                              ; preds = %lean_obj_tag.exit67, %lean_inc.exit
  %.sink = phi ptr [ %123, %lean_inc.exit ], [ %67, %lean_obj_tag.exit67 ]
  %125 = tail call ptr @l_Lean_KVMap_insertCore(ptr noundef %.035, ptr noundef %57, ptr noundef %.sink)
  br label %10
}